target datalayout = "e-m:e-p270:32:32-p271:32:32-p272:64:64-i64:64-i128:128-f80:128-n8:16:32:64-S128"
target triple = "x86_64-pc-linux-gnu"

%union.PROJVALUE = type { double }
%struct.PJ_INIT_INFO = type { [32 x i8], [260 x i8], [32 x i8], [32 x i8], [16 x i8] }
%struct.ARG_list = type { ptr, i8, [0 x i8] }

@.str.96 = private unnamed_addr constant [5 x i8] c"epsg\00", align 1
@.str.97 = private unnamed_addr constant [5 x i8] c"EPSG\00", align 1
@.str.98 = private unnamed_addr constant [13 x i8] c"EPSG.VERSION\00", align 1
@.str.99 = private unnamed_addr constant [10 x i8] c"EPSG.DATE\00", align 1
@.str.100 = private unnamed_addr constant [5 x i8] c"IGNF\00", align 1
@.str.101 = private unnamed_addr constant [13 x i8] c"IGNF.VERSION\00", align 1
@.str.102 = private unnamed_addr constant [10 x i8] c"IGNF.DATE\00", align 1
@.str.103 = private unnamed_addr constant [8 x i8] c"Unknown\00", align 1
@.str.104 = private unnamed_addr constant [10 x i8] c":metadata\00", align 1
@.str.105 = private unnamed_addr constant [7 x i8] c"+init=\00", align 1
@.str.106 = private unnamed_addr constant [9 x i8] c"tversion\00", align 1
@.str.107 = private unnamed_addr constant [9 x i8] c"sversion\00", align 1
@.str.108 = private unnamed_addr constant [8 x i8] c"torigin\00", align 1
@.str.109 = private unnamed_addr constant [8 x i8] c"sorigin\00", align 1
@.str.110 = private unnamed_addr constant [12 x i8] c"tlastupdate\00", align 1
@.str.111 = private unnamed_addr constant [12 x i8] c"slastupdate\00", align 1

; Function Attrs: mustprogress uwtable
define void @proj_init_info(ptr dead_on_unwind noalias writable sret(%struct.PJ_INIT_INFO) align 1 %0, ptr noundef %1) #1 {
  %3 = alloca ptr, align 8
  %4 = alloca i32, align 4
  %5 = alloca [80 x i8], align 16
  %6 = alloca [74 x i8], align 16
  %7 = alloca ptr, align 8
  %8 = alloca ptr, align 8
  %9 = alloca ptr, align 8
  %10 = alloca ptr, align 8
  %11 = alloca i32, align 4
  %12 = alloca ptr, align 8
  %13 = alloca %union.PROJVALUE, align 8
  %14 = alloca %union.PROJVALUE, align 8
  %15 = alloca %union.PROJVALUE, align 8
  %16 = alloca %union.PROJVALUE, align 8
  %17 = alloca %union.PROJVALUE, align 8
  %18 = alloca %union.PROJVALUE, align 8
  store ptr %1, ptr %3, align 8, !tbaa !86
  call void @llvm.lifetime.start.p0(i64 4, ptr %4) #6
  call void @llvm.lifetime.start.p0(i64 80, ptr %5) #6
  call void @llvm.lifetime.start.p0(i64 74, ptr %6) #6
  call void @llvm.lifetime.start.p0(i64 8, ptr %7) #6
  call void @llvm.lifetime.start.p0(i64 8, ptr %8) #6
  call void @llvm.lifetime.start.p0(i64 8, ptr %9) #6
  %19 = call noundef ptr @_Z18pj_get_default_ctxv()
  store ptr %19, ptr %9, align 8, !tbaa !82
  call void @llvm.memset.p0.i64(ptr align 1 %0, i8 0, i64 372, i1 false)
  %20 = load ptr, ptr %9, align 8, !tbaa !82
  %21 = load ptr, ptr %3, align 8, !tbaa !86
  %22 = getelementptr inbounds nuw %struct.PJ_INIT_INFO, ptr %0, i32 0, i32 1
  %23 = getelementptr inbounds [260 x i8], ptr %22, i64 0, i64 0
  %24 = call noundef i32 @_Z12pj_find_fileP6pj_ctxPKcPcm(ptr noundef %20, ptr noundef %21, ptr noundef %23, i64 noundef 260)
  store i32 %24, ptr %4, align 4, !tbaa !26
  %25 = load i32, ptr %4, align 4, !tbaa !26
  %26 = icmp ne i32 %25, 0
  br i1 %26, label %27, label %31

27:                                               ; preds = %2
  %28 = load ptr, ptr %3, align 8, !tbaa !86
  %29 = call i64 @strlen(ptr noundef %28) #26
  %30 = icmp ugt i64 %29, 64
  br i1 %30, label %31, label %102

31:                                               ; preds = %27, %2
  %32 = load ptr, ptr %3, align 8, !tbaa !86
  %33 = call i32 @strcmp(ptr noundef %32, ptr noundef @.str.96) #26
  %34 = icmp eq i32 %33, 0
  br i1 %34, label %39, label %35

35:                                               ; preds = %31
  %36 = load ptr, ptr %3, align 8, !tbaa !86
  %37 = call i32 @strcmp(ptr noundef %36, ptr noundef @.str.97) #26
  %38 = icmp eq i32 %37, 0
  br i1 %38, label %39, label %68

39:                                               ; preds = %35, %31
  call void @llvm.lifetime.start.p0(i64 8, ptr %10) #6
  %40 = load ptr, ptr %9, align 8, !tbaa !82
  call void @_Z22proj_context_errno_setP6pj_ctxi(ptr noundef %40, i32 noundef 0)
  %41 = getelementptr inbounds nuw %struct.PJ_INIT_INFO, ptr %0, i32 0, i32 0
  %42 = getelementptr inbounds [32 x i8], ptr %41, i64 0, i64 0
  %43 = load ptr, ptr %3, align 8, !tbaa !86
  %44 = call ptr @strncpy(ptr noundef %42, ptr noundef %43, i64 noundef 31) #6
  %45 = getelementptr inbounds nuw %struct.PJ_INIT_INFO, ptr %0, i32 0, i32 3
  %46 = getelementptr inbounds [32 x i8], ptr %45, i64 0, i64 0
  %47 = call ptr @strcpy(ptr noundef %46, ptr noundef @.str.97) #6
  %48 = load ptr, ptr %9, align 8, !tbaa !82
  %49 = call ptr @proj_context_get_database_metadata(ptr noundef %48, ptr noundef @.str.98)
  store ptr %49, ptr %10, align 8, !tbaa !86
  %50 = load ptr, ptr %10, align 8, !tbaa !86
  %51 = icmp ne ptr %50, null
  br i1 %51, label %52, label %57

52:                                               ; preds = %39
  %53 = getelementptr inbounds nuw %struct.PJ_INIT_INFO, ptr %0, i32 0, i32 2
  %54 = getelementptr inbounds [32 x i8], ptr %53, i64 0, i64 0
  %55 = load ptr, ptr %10, align 8, !tbaa !86
  %56 = call ptr @strncpy(ptr noundef %54, ptr noundef %55, i64 noundef 31) #6
  br label %57

57:                                               ; preds = %52, %39
  %58 = load ptr, ptr %9, align 8, !tbaa !82
  %59 = call ptr @proj_context_get_database_metadata(ptr noundef %58, ptr noundef @.str.99)
  store ptr %59, ptr %10, align 8, !tbaa !86
  %60 = load ptr, ptr %10, align 8, !tbaa !86
  %61 = icmp ne ptr %60, null
  br i1 %61, label %62, label %67

62:                                               ; preds = %57
  %63 = getelementptr inbounds nuw %struct.PJ_INIT_INFO, ptr %0, i32 0, i32 4
  %64 = getelementptr inbounds [16 x i8], ptr %63, i64 0, i64 0
  %65 = load ptr, ptr %10, align 8, !tbaa !86
  %66 = call ptr @strncpy(ptr noundef %64, ptr noundef %65, i64 noundef 15) #6
  br label %67

67:                                               ; preds = %62, %57
  store i32 1, ptr %11, align 4
  call void @llvm.lifetime.end.p0(i64 8, ptr %10) #6
  br label %199

68:                                               ; preds = %35
  %69 = load ptr, ptr %3, align 8, !tbaa !86
  %70 = call i32 @strcmp(ptr noundef %69, ptr noundef @.str.100) #26
  %71 = icmp eq i32 %70, 0
  br i1 %71, label %72, label %101

72:                                               ; preds = %68
  call void @llvm.lifetime.start.p0(i64 8, ptr %12) #6
  %73 = load ptr, ptr %9, align 8, !tbaa !82
  call void @_Z22proj_context_errno_setP6pj_ctxi(ptr noundef %73, i32 noundef 0)
  %74 = getelementptr inbounds nuw %struct.PJ_INIT_INFO, ptr %0, i32 0, i32 0
  %75 = getelementptr inbounds [32 x i8], ptr %74, i64 0, i64 0
  %76 = load ptr, ptr %3, align 8, !tbaa !86
  %77 = call ptr @strncpy(ptr noundef %75, ptr noundef %76, i64 noundef 31) #6
  %78 = getelementptr inbounds nuw %struct.PJ_INIT_INFO, ptr %0, i32 0, i32 3
  %79 = getelementptr inbounds [32 x i8], ptr %78, i64 0, i64 0
  %80 = call ptr @strcpy(ptr noundef %79, ptr noundef @.str.100) #6
  %81 = load ptr, ptr %9, align 8, !tbaa !82
  %82 = call ptr @proj_context_get_database_metadata(ptr noundef %81, ptr noundef @.str.101)
  store ptr %82, ptr %12, align 8, !tbaa !86
  %83 = load ptr, ptr %12, align 8, !tbaa !86
  %84 = icmp ne ptr %83, null
  br i1 %84, label %85, label %90

85:                                               ; preds = %72
  %86 = getelementptr inbounds nuw %struct.PJ_INIT_INFO, ptr %0, i32 0, i32 2
  %87 = getelementptr inbounds [32 x i8], ptr %86, i64 0, i64 0
  %88 = load ptr, ptr %12, align 8, !tbaa !86
  %89 = call ptr @strncpy(ptr noundef %87, ptr noundef %88, i64 noundef 31) #6
  br label %90

90:                                               ; preds = %85, %72
  %91 = load ptr, ptr %9, align 8, !tbaa !82
  %92 = call ptr @proj_context_get_database_metadata(ptr noundef %91, ptr noundef @.str.102)
  store ptr %92, ptr %12, align 8, !tbaa !86
  %93 = load ptr, ptr %12, align 8, !tbaa !86
  %94 = icmp ne ptr %93, null
  br i1 %94, label %95, label %100

95:                                               ; preds = %90
  %96 = getelementptr inbounds nuw %struct.PJ_INIT_INFO, ptr %0, i32 0, i32 4
  %97 = getelementptr inbounds [16 x i8], ptr %96, i64 0, i64 0
  %98 = load ptr, ptr %12, align 8, !tbaa !86
  %99 = call ptr @strncpy(ptr noundef %97, ptr noundef %98, i64 noundef 15) #6
  br label %100

100:                                              ; preds = %95, %90
  store i32 1, ptr %11, align 4
  call void @llvm.lifetime.end.p0(i64 8, ptr %12) #6
  br label %199

101:                                              ; preds = %68
  store i32 1, ptr %11, align 4
  br label %199

102:                                              ; preds = %27
  %103 = getelementptr inbounds nuw %struct.PJ_INIT_INFO, ptr %0, i32 0, i32 0
  %104 = getelementptr inbounds [32 x i8], ptr %103, i64 0, i64 0
  %105 = load ptr, ptr %3, align 8, !tbaa !86
  %106 = call ptr @strncpy(ptr noundef %104, ptr noundef %105, i64 noundef 31) #6
  %107 = getelementptr inbounds nuw %struct.PJ_INIT_INFO, ptr %0, i32 0, i32 3
  %108 = getelementptr inbounds [32 x i8], ptr %107, i64 0, i64 0
  %109 = call ptr @strcpy(ptr noundef %108, ptr noundef @.str.103) #6
  %110 = getelementptr inbounds nuw %struct.PJ_INIT_INFO, ptr %0, i32 0, i32 2
  %111 = getelementptr inbounds [32 x i8], ptr %110, i64 0, i64 0
  %112 = call ptr @strcpy(ptr noundef %111, ptr noundef @.str.103) #6
  %113 = getelementptr inbounds nuw %struct.PJ_INIT_INFO, ptr %0, i32 0, i32 4
  %114 = getelementptr inbounds [16 x i8], ptr %113, i64 0, i64 0
  %115 = call ptr @strcpy(ptr noundef %114, ptr noundef @.str.103) #6
  %116 = getelementptr inbounds [74 x i8], ptr %6, i64 0, i64 0
  %117 = load ptr, ptr %3, align 8, !tbaa !86
  %118 = call ptr @strncpy(ptr noundef %116, ptr noundef %117, i64 noundef 64) #6
  %119 = getelementptr inbounds [74 x i8], ptr %6, i64 0, i64 64
  store i8 0, ptr %119, align 16, !tbaa !84
  %120 = getelementptr inbounds [74 x i8], ptr %6, i64 0, i64 0
  %121 = getelementptr inbounds [74 x i8], ptr %6, i64 0, i64 0
  %122 = call i64 @strlen(ptr noundef %121) #26
  %123 = getelementptr inbounds nuw i8, ptr %120, i64 %122
  call void @llvm.memcpy.p0.p0.i64(ptr align 1 %123, ptr align 1 @.str.104, i64 10, i1 false)
  %124 = getelementptr inbounds [80 x i8], ptr %5, i64 0, i64 0
  %125 = call ptr @strcpy(ptr noundef %124, ptr noundef @.str.105) #6
  %126 = getelementptr inbounds [80 x i8], ptr %5, i64 0, i64 0
  %127 = getelementptr inbounds [80 x i8], ptr %5, i64 0, i64 0
  %128 = call i64 @strlen(ptr noundef %127) #26
  %129 = getelementptr inbounds nuw i8, ptr %126, i64 %128
  %130 = getelementptr inbounds [74 x i8], ptr %6, i64 0, i64 0
  %131 = getelementptr inbounds [80 x i8], ptr %5, i64 0, i64 0
  %132 = call i64 @strlen(ptr noundef %131) #26
  %133 = sub i64 79, %132
  %134 = call ptr @strncat(ptr noundef %129, ptr noundef %130, i64 noundef %133) #6
  %135 = getelementptr inbounds [80 x i8], ptr %5, i64 0, i64 0
  %136 = call noundef ptr @_Z10pj_mkparamPKc(ptr noundef %135)
  store ptr %136, ptr %7, align 8, !tbaa !553
  %137 = load ptr, ptr %9, align 8, !tbaa !82
  %138 = load ptr, ptr %7, align 8, !tbaa !553
  %139 = call noundef ptr @_Z14pj_expand_initP6pj_ctxP8ARG_list(ptr noundef %137, ptr noundef %138)
  call void @llvm.lifetime.start.p0(i64 8, ptr %13) #6
  %140 = load ptr, ptr %9, align 8, !tbaa !82
  %141 = load ptr, ptr %7, align 8, !tbaa !553
  %142 = call i64 @_Z8pj_paramP6pj_ctxP8ARG_listPKc(ptr noundef %140, ptr noundef %141, ptr noundef @.str.106)
  %143 = getelementptr inbounds nuw %union.PROJVALUE, ptr %13, i32 0, i32 0
  store i64 %142, ptr %143, align 8
  %144 = load i32, ptr %13, align 8, !tbaa !84
  %145 = icmp ne i32 %144, 0
  call void @llvm.lifetime.end.p0(i64 8, ptr %13) #6
  br i1 %145, label %146, label %155

146:                                              ; preds = %102
  %147 = getelementptr inbounds nuw %struct.PJ_INIT_INFO, ptr %0, i32 0, i32 2
  %148 = getelementptr inbounds [32 x i8], ptr %147, i64 0, i64 0
  call void @llvm.lifetime.start.p0(i64 8, ptr %14) #6
  %149 = load ptr, ptr %9, align 8, !tbaa !82
  %150 = load ptr, ptr %7, align 8, !tbaa !553
  %151 = call i64 @_Z8pj_paramP6pj_ctxP8ARG_listPKc(ptr noundef %149, ptr noundef %150, ptr noundef @.str.107)
  %152 = getelementptr inbounds nuw %union.PROJVALUE, ptr %14, i32 0, i32 0
  store i64 %151, ptr %152, align 8
  %153 = load ptr, ptr %14, align 8, !tbaa !84
  %154 = call ptr @strncpy(ptr noundef %148, ptr noundef %153, i64 noundef 31) #6
  call void @llvm.lifetime.end.p0(i64 8, ptr %14) #6
  br label %155

155:                                              ; preds = %146, %102
  call void @llvm.lifetime.start.p0(i64 8, ptr %15) #6
  %156 = load ptr, ptr %9, align 8, !tbaa !82
  %157 = load ptr, ptr %7, align 8, !tbaa !553
  %158 = call i64 @_Z8pj_paramP6pj_ctxP8ARG_listPKc(ptr noundef %156, ptr noundef %157, ptr noundef @.str.108)
  %159 = getelementptr inbounds nuw %union.PROJVALUE, ptr %15, i32 0, i32 0
  store i64 %158, ptr %159, align 8
  %160 = load i32, ptr %15, align 8, !tbaa !84
  %161 = icmp ne i32 %160, 0
  call void @llvm.lifetime.end.p0(i64 8, ptr %15) #6
  br i1 %161, label %162, label %171

162:                                              ; preds = %155
  %163 = getelementptr inbounds nuw %struct.PJ_INIT_INFO, ptr %0, i32 0, i32 3
  %164 = getelementptr inbounds [32 x i8], ptr %163, i64 0, i64 0
  call void @llvm.lifetime.start.p0(i64 8, ptr %16) #6
  %165 = load ptr, ptr %9, align 8, !tbaa !82
  %166 = load ptr, ptr %7, align 8, !tbaa !553
  %167 = call i64 @_Z8pj_paramP6pj_ctxP8ARG_listPKc(ptr noundef %165, ptr noundef %166, ptr noundef @.str.109)
  %168 = getelementptr inbounds nuw %union.PROJVALUE, ptr %16, i32 0, i32 0
  store i64 %167, ptr %168, align 8
  %169 = load ptr, ptr %16, align 8, !tbaa !84
  %170 = call ptr @strncpy(ptr noundef %164, ptr noundef %169, i64 noundef 31) #6
  call void @llvm.lifetime.end.p0(i64 8, ptr %16) #6
  br label %171

171:                                              ; preds = %162, %155
  call void @llvm.lifetime.start.p0(i64 8, ptr %17) #6
  %172 = load ptr, ptr %9, align 8, !tbaa !82
  %173 = load ptr, ptr %7, align 8, !tbaa !553
  %174 = call i64 @_Z8pj_paramP6pj_ctxP8ARG_listPKc(ptr noundef %172, ptr noundef %173, ptr noundef @.str.110)
  %175 = getelementptr inbounds nuw %union.PROJVALUE, ptr %17, i32 0, i32 0
  store i64 %174, ptr %175, align 8
  %176 = load i32, ptr %17, align 8, !tbaa !84
  %177 = icmp ne i32 %176, 0
  call void @llvm.lifetime.end.p0(i64 8, ptr %17) #6
  br i1 %177, label %178, label %187

178:                                              ; preds = %171
  %179 = getelementptr inbounds nuw %struct.PJ_INIT_INFO, ptr %0, i32 0, i32 4
  %180 = getelementptr inbounds [16 x i8], ptr %179, i64 0, i64 0
  call void @llvm.lifetime.start.p0(i64 8, ptr %18) #6
  %181 = load ptr, ptr %9, align 8, !tbaa !82
  %182 = load ptr, ptr %7, align 8, !tbaa !553
  %183 = call i64 @_Z8pj_paramP6pj_ctxP8ARG_listPKc(ptr noundef %181, ptr noundef %182, ptr noundef @.str.111)
  %184 = getelementptr inbounds nuw %union.PROJVALUE, ptr %18, i32 0, i32 0
  store i64 %183, ptr %184, align 8
  %185 = load ptr, ptr %18, align 8, !tbaa !84
  %186 = call ptr @strncpy(ptr noundef %180, ptr noundef %185, i64 noundef 15) #6
  call void @llvm.lifetime.end.p0(i64 8, ptr %18) #6
  br label %187

187:                                              ; preds = %178, %171
  br label %188

188:                                              ; preds = %196, %187
  %189 = load ptr, ptr %7, align 8, !tbaa !553
  %190 = icmp ne ptr %189, null
  br i1 %190, label %191, label %198

191:                                              ; preds = %188
  %192 = load ptr, ptr %7, align 8, !tbaa !553
  %193 = getelementptr inbounds nuw %struct.ARG_list, ptr %192, i32 0, i32 0
  %194 = load ptr, ptr %193, align 8, !tbaa !553
  store ptr %194, ptr %8, align 8, !tbaa !553
  %195 = load ptr, ptr %7, align 8, !tbaa !553
  call void @free(ptr noundef %195) #6
  br label %196

196:                                              ; preds = %191
  %197 = load ptr, ptr %8, align 8, !tbaa !553
  store ptr %197, ptr %7, align 8, !tbaa !553
  br label %188, !llvm.loop !554

198:                                              ; preds = %188
  store i32 1, ptr %11, align 4
  br label %199

199:                                              ; preds = %198, %101, %100, %67
  call void @llvm.lifetime.end.p0(i64 8, ptr %9) #6
  call void @llvm.lifetime.end.p0(i64 8, ptr %8) #6
  call void @llvm.lifetime.end.p0(i64 8, ptr %7) #6
  call void @llvm.lifetime.end.p0(i64 74, ptr %6) #6
  call void @llvm.lifetime.end.p0(i64 80, ptr %5) #6
  call void @llvm.lifetime.end.p0(i64 4, ptr %4) #6
  ret void
}