; Function Attrs: mustprogress uwtable
define void @proj_init_info(ptr dead_on_unwind noalias writable sret(%struct.PJ_INIT_INFO) align 1 initializes((0, 372)) %0, ptr noundef %1) local_unnamed_addr #2 {
  %3 = alloca [80 x i8], align 16
  %4 = alloca [74 x i8], align 16
  call void @llvm.lifetime.start.p0(i64 80, ptr nonnull %3) #34
  call void @llvm.lifetime.start.p0(i64 74, ptr nonnull %4) #34
  %5 = tail call noundef ptr @_Z18pj_get_default_ctxv()
  tail call void @llvm.memset.p0.i64(ptr noundef nonnull align 1 dereferenceable(372) %0, i8 0, i64 372, i1 false)
  %6 = getelementptr inbounds nuw i8, ptr %0, i64 32
  %7 = tail call noundef i32 @_Z12pj_find_fileP6pj_ctxPKcPcm(ptr noundef %5, ptr noundef %1, ptr noundef nonnull %6, i64 noundef 260)
  %.not = icmp eq i32 %7, 0
  br i1 %.not, label %11, label %8

8:                                                ; preds = %2
  %9 = tail call i64 @strlen(ptr noundef nonnull dereferenceable(1) %1) #38
  %10 = icmp ugt i64 %9, 64
  br i1 %10, label %11, label %38

11:                                               ; preds = %8, %2
  %12 = tail call i32 @strcmp(ptr noundef nonnull dereferenceable(1) %1, ptr noundef nonnull dereferenceable(5) @.str.96) #38
  %13 = icmp eq i32 %12, 0
  br i1 %13, label %17, label %14

14:                                               ; preds = %11
  %15 = tail call i32 @strcmp(ptr noundef nonnull dereferenceable(1) %1, ptr noundef nonnull dereferenceable(5) @.str.97) #38
  %16 = icmp eq i32 %15, 0
  br i1 %16, label %17, label %26

17:                                               ; preds = %14, %11
  tail call void @_Z22proj_context_errno_setP6pj_ctxi(ptr noundef %5, i32 noundef 0)
  %18 = tail call ptr @strncpy(ptr noundef nonnull dereferenceable(1) %0, ptr noundef nonnull dereferenceable(1) %1, i64 noundef 31) #34
  %19 = getelementptr inbounds nuw i8, ptr %0, i64 324
  tail call void @llvm.memcpy.p0.p0.i64(ptr noundef nonnull align 1 dereferenceable(5) %19, ptr noundef nonnull align 1 dereferenceable(5) @.str.97, i64 5, i1 false) #34
  %20 = tail call ptr @proj_context_get_database_metadata(ptr noundef %5, ptr noundef nonnull @.str.98)
  %.not59 = icmp eq ptr %20, null
  br i1 %.not59, label %24, label %21

21:                                               ; preds = %17
  %22 = getelementptr inbounds nuw i8, ptr %0, i64 292
  %23 = tail call ptr @strncpy(ptr noundef nonnull dereferenceable(1) %22, ptr noundef nonnull dereferenceable(1) %20, i64 noundef 31) #34
  br label %24

24:                                               ; preds = %21, %17
  %25 = tail call ptr @proj_context_get_database_metadata(ptr noundef %5, ptr noundef nonnull @.str.99)
  %.not60 = icmp eq ptr %25, null
  br i1 %.not60, label %.loopexit, label %.loopexit.sink.split

26:                                               ; preds = %14
  %27 = tail call i32 @strcmp(ptr noundef nonnull dereferenceable(1) %1, ptr noundef nonnull dereferenceable(5) @.str.100) #38
  %28 = icmp eq i32 %27, 0
  br i1 %28, label %29, label %.loopexit

29:                                               ; preds = %26
  tail call void @_Z22proj_context_errno_setP6pj_ctxi(ptr noundef %5, i32 noundef 0)
  %30 = tail call ptr @strncpy(ptr noundef nonnull dereferenceable(1) %0, ptr noundef nonnull dereferenceable(1) %1, i64 noundef 31) #34
  %31 = getelementptr inbounds nuw i8, ptr %0, i64 324
  tail call void @llvm.memcpy.p0.p0.i64(ptr noundef nonnull align 1 dereferenceable(5) %31, ptr noundef nonnull align 1 dereferenceable(5) @.str.100, i64 5, i1 false) #34
  %32 = tail call ptr @proj_context_get_database_metadata(ptr noundef %5, ptr noundef nonnull @.str.101)
  %.not57 = icmp eq ptr %32, null
  br i1 %.not57, label %36, label %33

33:                                               ; preds = %29
  %34 = getelementptr inbounds nuw i8, ptr %0, i64 292
  %35 = tail call ptr @strncpy(ptr noundef nonnull dereferenceable(1) %34, ptr noundef nonnull dereferenceable(1) %32, i64 noundef 31) #34
  br label %36

36:                                               ; preds = %33, %29
  %37 = tail call ptr @proj_context_get_database_metadata(ptr noundef %5, ptr noundef nonnull @.str.102)
  %.not58 = icmp eq ptr %37, null
  br i1 %.not58, label %.loopexit, label %.loopexit.sink.split

38:                                               ; preds = %8
  %39 = tail call ptr @strncpy(ptr noundef nonnull dereferenceable(1) %0, ptr noundef nonnull dereferenceable(1) %1, i64 noundef 31) #34
  %40 = getelementptr inbounds nuw i8, ptr %0, i64 324
  store i64 31093567915781717, ptr %40, align 1
  %41 = getelementptr inbounds nuw i8, ptr %0, i64 292
  store i64 31093567915781717, ptr %41, align 1
  %42 = getelementptr inbounds nuw i8, ptr %0, i64 356
  store i64 31093567915781717, ptr %42, align 1
  %43 = call ptr @strncpy(ptr noundef nonnull dereferenceable(1) %4, ptr noundef nonnull dereferenceable(1) %1, i64 noundef 64) #34
  %44 = getelementptr inbounds nuw i8, ptr %4, i64 64
  store i8 0, ptr %44, align 16, !tbaa !30
  %45 = call i64 @strlen(ptr noundef nonnull dereferenceable(1) %4) #38
  %46 = getelementptr inbounds nuw i8, ptr %4, i64 %45
  call void @llvm.memcpy.p0.p0.i64(ptr noundef nonnull align 1 dereferenceable(10) %46, ptr noundef nonnull align 1 dereferenceable(10) @.str.104, i64 10, i1 false)
  call void @llvm.memcpy.p0.p0.i64(ptr noundef nonnull align 16 dereferenceable(7) %3, ptr noundef nonnull align 1 dereferenceable(7) @.str.105, i64 7, i1 false) #34
  %47 = call i64 @strlen(ptr noundef nonnull dereferenceable(1) %3) #38
  %48 = getelementptr inbounds nuw i8, ptr %3, i64 %47
  %49 = sub i64 79, %47
  %50 = call ptr @strncat(ptr noundef nonnull dereferenceable(1) %48, ptr noundef nonnull %4, i64 noundef %49) #34
  %51 = call noundef ptr @_Z10pj_mkparamPKc(ptr noundef nonnull %3)
  %52 = call noundef ptr @_Z14pj_expand_initP6pj_ctxP8ARG_list(ptr noundef %5, ptr noundef %51)
  %53 = call i64 @_Z8pj_paramP6pj_ctxP8ARG_listPKc(ptr noundef %5, ptr noundef %51, ptr noundef nonnull @.str.106)
  %54 = and i64 %53, 4294967295
  %.not53 = icmp eq i64 %54, 0
  br i1 %.not53, label %58, label %55

55:                                               ; preds = %38
  %56 = call i64 @_Z8pj_paramP6pj_ctxP8ARG_listPKc(ptr noundef %5, ptr noundef %51, ptr noundef nonnull @.str.107)
  %.sroa.05.0..sroa.05.0..cast = inttoptr i64 %56 to ptr
  %57 = call ptr @strncpy(ptr noundef nonnull dereferenceable(1) %41, ptr noundef nonnull dereferenceable(1) %.sroa.05.0..sroa.05.0..cast, i64 noundef 31) #34
  br label %58

58:                                               ; preds = %55, %38
  %59 = call i64 @_Z8pj_paramP6pj_ctxP8ARG_listPKc(ptr noundef %5, ptr noundef %51, ptr noundef nonnull @.str.108)
  %60 = and i64 %59, 4294967295
  %.not54 = icmp eq i64 %60, 0
  br i1 %.not54, label %64, label %61

61:                                               ; preds = %58
  %62 = call i64 @_Z8pj_paramP6pj_ctxP8ARG_listPKc(ptr noundef %5, ptr noundef %51, ptr noundef nonnull @.str.109)
  %.sroa.02.0..sroa.02.0..cast = inttoptr i64 %62 to ptr
  %63 = call ptr @strncpy(ptr noundef nonnull dereferenceable(1) %40, ptr noundef nonnull dereferenceable(1) %.sroa.02.0..sroa.02.0..cast, i64 noundef 31) #34
  br label %64

64:                                               ; preds = %61, %58
  %65 = call i64 @_Z8pj_paramP6pj_ctxP8ARG_listPKc(ptr noundef %5, ptr noundef %51, ptr noundef nonnull @.str.110)
  %66 = and i64 %65, 4294967295
  %.not55 = icmp eq i64 %66, 0
  br i1 %.not55, label %70, label %67

67:                                               ; preds = %64
  %68 = call i64 @_Z8pj_paramP6pj_ctxP8ARG_listPKc(ptr noundef %5, ptr noundef %51, ptr noundef nonnull @.str.111)
  %.sroa.0.0..sroa.0.0..cast = inttoptr i64 %68 to ptr
  %69 = call ptr @strncpy(ptr noundef nonnull dereferenceable(1) %42, ptr noundef nonnull dereferenceable(1) %.sroa.0.0..sroa.0.0..cast, i64 noundef 15) #34
  br label %70

70:                                               ; preds = %67, %64
  %.not5661 = icmp eq ptr %51, null
  br i1 %.not5661, label %.loopexit, label %.lr.ph

.lr.ph:                                           ; preds = %70, %.lr.ph
  %.062 = phi ptr [ %71, %.lr.ph ], [ %51, %70 ]
  %71 = load ptr, ptr %.062, align 8, !tbaa !524
  call void @free(ptr noundef nonnull %.062) #34
  %.not56 = icmp eq ptr %71, null
  br i1 %.not56, label %.loopexit, label %.lr.ph, !llvm.loop !525

.loopexit.sink.split:                             ; preds = %36, %24
  %.sink63 = phi ptr [ %25, %24 ], [ %37, %36 ]
  %72 = getelementptr inbounds nuw i8, ptr %0, i64 356
  %73 = tail call ptr @strncpy(ptr noundef nonnull dereferenceable(1) %72, ptr noundef nonnull dereferenceable(1) %.sink63, i64 noundef 15) #34
  br label %.loopexit

.loopexit:                                        ; preds = %.lr.ph, %.loopexit.sink.split, %70, %26, %36, %24
  call void @llvm.lifetime.end.p0(i64 74, ptr nonnull %4) #34
  call void @llvm.lifetime.end.p0(i64 80, ptr nonnull %3) #34
  ret void
}